target datalayout = "e-m:e-p270:32:32-p271:32:32-p272:64:64-i64:64-i128:128-f80:128-n8:16:32:64-S128"
target triple = "x86_64-pc-linux-gnu"

; Function Attrs: nounwind null_pointer_is_valid sspstrong uwtable
define internal i32 @logcat_dump_can_write_encap(i32 noundef %0) #0 {
  %2 = alloca i32, align 4
  %3 = alloca i32, align 4
  store i32 %0, ptr %3, align 4
  %4 = load i32, ptr %3, align 4
  %5 = icmp eq i32 %4, -1
  br i1 %5, label %6, label %7

6:                                                ; preds = %1
  store i32 -9, ptr %2, align 4
  br label %15

7:                                                ; preds = %1
  %8 = load i32, ptr %3, align 4
  %9 = icmp ne i32 %8, 163
  br i1 %9, label %10, label %14

10:                                               ; preds = %7
  %11 = load i32, ptr %3, align 4
  %12 = icmp ne i32 %11, 155
  br i1 %12, label %13, label %14

13:                                               ; preds = %10
  store i32 -8, ptr %2, align 4
  br label %15

14:                                               ; preds = %10, %7
  store i32 0, ptr %2, align 4
  br label %15

15:                                               ; preds = %14, %13, %6
  %16 = load i32, ptr %2, align 4
  ret i32 %16
}