; Function Attrs: mustprogress nofree norecurse nosync nounwind null_pointer_is_valid sspstrong willreturn memory(none) uwtable
define internal range(i32 -9, 1) i32 @logcat_dump_can_write_encap(i32 noundef %0) #6 {
  switch i32 %0, label %.fold.split [
    i32 -1, label %3
    i32 163, label %2
    i32 155, label %2
  ]

2:                                                ; preds = %1, %1
  br label %3

.fold.split:                                      ; preds = %1
  br label %3

3:                                                ; preds = %1, %.fold.split, %2
  %.0 = phi i32 [ 0, %2 ], [ -9, %1 ], [ -8, %.fold.split ]
  ret i32 %.0
}